(dp0
S'steamLoginSecure'
p1
S'76561197983139814%7C%7C1F6A28CC0ADF771240C1488941372202E67D0E8F'
p2
sS'steamMachineAuth76561197983139814'
p3
S'5E027E6A5CCE933C9B74A514388875A76F42B6E7'
p4
sS'steamCountry'
p5
S'BR%7Ccf1fcb7fe3d2cd939a0184a55535bd6e'
p6
sS'steamLogin'
p7
S'76561197983139814%7C%7C03E241767218CE4CA7E203620B01796877FED5D5'
p8
s.