(dp0
S'steamLoginSecure'
p1
S'76561197983139814%7C%7C79EA78B6DDCD5D64CAA5F540BA52D32F629D7ABA'
p2
sS'steamMachineAuth76561197983139814'
p3
S'F567B827B0324D714B4A5D4DE8B68DFE102B0C13'
p4
sS'steamCountry'
p5
S'BR%7Ccf1fcb7fe3d2cd939a0184a55535bd6e'
p6
sS'steamLogin'
p7
S'76561197983139814%7C%7C80DCFD16904D4AA73CBAF65990D098AB13AC1A30'
p8
s.